; Function Attrs: mustprogress nounwind uwtable
define void @_ZN6icu_7513LocaleBuilderD2Ev(ptr noundef nonnull align 8 dereferenceable(48) %this) unnamed_addr #0 align 2 {
entry:
  store ptr getelementptr inbounds ({ [5 x ptr] }, ptr @_ZTVN6icu_7513LocaleBuilderE, i64 0, i32 0, i64 2), ptr %this, align 8
  %variant_ = getelementptr inbounds i8, ptr %this, i64 32
  %0 = load ptr, ptr %variant_, align 8
  %isnull = icmp eq ptr %0, null
  br i1 %isnull, label %delete.end, label %delete.notnull

delete.notnull:                                   ; preds = %entry
  tail call void @_ZN6icu_7515MaybeStackArrayIcLi40EED1Ev(ptr noundef nonnull align 8 dereferenceable(53) %0) #13
  tail call void @_ZN6icu_757UMemorydlEPv(ptr noundef nonnull %0) #13
  br label %delete.end

delete.end:                                       ; preds = %delete.notnull, %entry
  %extensions_ = getelementptr inbounds i8, ptr %this, i64 40
  %1 = load ptr, ptr %extensions_, align 8
  %isnull2 = icmp eq ptr %1, null
  br i1 %isnull2, label %delete.end4, label %delete.notnull3

delete.notnull3:                                  ; preds = %delete.end
  %vtable = load ptr, ptr %1, align 8
  %vfn = getelementptr inbounds i8, ptr %vtable, i64 8
  %2 = load ptr, ptr %vfn, align 8
  tail call void %2(ptr noundef nonnull align 8 dereferenceable(217) %1) #13
  br label %delete.end4

delete.end4:                                      ; preds = %delete.notnull3, %delete.end
  tail call void @_ZN6icu_757UObjectD2Ev(ptr noundef nonnull align 8 dereferenceable(8) %this) #13
  ret void
}